target datalayout = "e-m:e-p270:32:32-p271:32:32-p272:64:64-i64:64-i128:128-f80:128-n8:16:32:64-S128"
target triple = "x86_64-unknown-linux-gnu"

%struct.hiddev_usage_ref = type { i32, i32, i32, i32, i32, i32 }

; Function Attrs: fn_ret_thunk_extern nounwind null_pointer_is_valid
define internal fastcc void @hiddev_send_event(ptr nocapture noundef readonly %0, ptr nocapture noundef readonly %1) unnamed_addr #0 align 16 {
  %3 = getelementptr inbounds i8, ptr %0, i64 7184
  %4 = load ptr, ptr %3, align 8
  %5 = getelementptr inbounds i8, ptr %4, i64 96
  %6 = tail call i64 @_raw_spin_lock_irqsave(ptr noundef %5) #14
  %7 = getelementptr inbounds i8, ptr %4, i64 80
  %8 = load ptr, ptr %7, align 8
  %9 = icmp eq ptr %8, %7
  br i1 %9, label %34, label %10

10:                                               ; preds = %2
  %11 = getelementptr inbounds i8, ptr %1, i64 8
  br label %12

12:                                               ; preds = %31, %10
  %13 = phi ptr [ %8, %10 ], [ %32, %31 ]
  %14 = getelementptr i8, ptr %13, i64 -49184
  %15 = load i32, ptr %11, align 4
  %16 = icmp eq i32 %15, -1
  br i1 %16, label %17, label %22

17:                                               ; preds = %12
  %18 = getelementptr i8, ptr %13, i64 -24
  %19 = load i32, ptr %18, align 8
  %20 = and i32 %19, 2
  %21 = icmp eq i32 %20, 0
  br i1 %21, label %31, label %22

22:                                               ; preds = %17, %12
  %23 = getelementptr i8, ptr %13, i64 -32
  %24 = load i32, ptr %23, align 8
  %25 = sext i32 %24 to i64
  %26 = getelementptr [2048 x %struct.hiddev_usage_ref], ptr %14, i64 0, i64 %25
  tail call void @llvm.memcpy.p0.p0.i64(ptr noundef align 8 dereferenceable(24) %26, ptr noundef align 4 dereferenceable(24) %1, i64 24, i1 false)
  %27 = load i32, ptr %23, align 8
  %28 = add i32 %27, 1
  %29 = and i32 %28, 2047
  store i32 %29, ptr %23, align 8
  %30 = getelementptr i8, ptr %13, i64 -16
  tail call void @kill_fasync(ptr noundef %30, i32 noundef 29, i32 noundef 1) #14
  br label %31

31:                                               ; preds = %22, %17
  %32 = load ptr, ptr %13, align 8
  %33 = icmp eq ptr %32, %7
  br i1 %33, label %34, label %12, !llvm.loop !7

34:                                               ; preds = %31, %2
  tail call void @_raw_spin_unlock_irqrestore(ptr noundef %5, i64 noundef %6) #14
  %35 = getelementptr inbounds i8, ptr %4, i64 48
  %36 = tail call i32 @__wake_up(ptr noundef %35, i32 noundef 1, i32 noundef 1, ptr noundef null) #14
  ret void
}

; Function Attrs: fn_ret_thunk_extern nounwind null_pointer_is_valid
define dso_local void @hiddev_report_event(ptr nocapture noundef readonly %0, ptr nocapture noundef readonly %1) local_unnamed_addr #0 align 16 {
  %3 = alloca %struct.hiddev_usage_ref, align 4
  %4 = getelementptr inbounds i8, ptr %1, i64 52
  %5 = load i32, ptr %4, align 4
  call void @llvm.lifetime.start.p0(i64 24, ptr nonnull %3) #14
  call void @llvm.memset.p0.i64(ptr noundef nonnull align 4 dereferenceable(24) %3, i8 0, i64 24, i1 false)
  switch i32 %5, label %6 [
    i32 0, label %10
    i32 1, label %9
  ]

6:                                                ; preds = %2
  %7 = icmp eq i32 %5, 2
  %8 = select i1 %7, i32 3, i32 0
  br label %10

9:                                                ; preds = %2
  br label %10

10:                                               ; preds = %9, %6, %2
  %11 = phi i32 [ 1, %2 ], [ %8, %6 ], [ 2, %9 ]
  store i32 %11, ptr %3, align 4
  %12 = getelementptr inbounds i8, ptr %1, i64 48
  %13 = load i32, ptr %12, align 8
  %14 = getelementptr inbounds i8, ptr %3, i64 4
  store i32 %13, ptr %14, align 4
  %15 = getelementptr inbounds i8, ptr %3, i64 8
  store i32 -1, ptr %15, align 4
  call fastcc void @hiddev_send_event(ptr noundef %0, ptr noundef nonnull %3)
  call void @llvm.lifetime.end.p0(i64 24, ptr nonnull %3) #14
  ret void
}