; Function Attrs: fn_ret_thunk_extern nounwind null_pointer_is_valid
define dso_local void @hiddev_report_event(ptr nocapture noundef readonly %0, ptr nocapture noundef readonly %1) local_unnamed_addr #0 align 16 {
  %3 = getelementptr inbounds i8, ptr %1, i64 52
  %4 = load i32, ptr %3, align 4
  switch i32 %4, label %5 [
    i32 0, label %9
    i32 1, label %8
  ]

5:                                                ; preds = %2
  %6 = icmp eq i32 %4, 2
  %7 = select i1 %6, i32 3, i32 0
  br label %9

8:                                                ; preds = %2
  br label %9

9:                                                ; preds = %8, %5, %2
  %10 = phi i32 [ 1, %2 ], [ %7, %5 ], [ 2, %8 ]
  %11 = getelementptr inbounds i8, ptr %1, i64 48
  %12 = load i32, ptr %11, align 8
  %13 = getelementptr i8, ptr %0, i64 7184
  %.val = load ptr, ptr %13, align 8
  %14 = getelementptr inbounds i8, ptr %.val, i64 96
  %15 = tail call i64 @_raw_spin_lock_irqsave(ptr noundef %14) #13
  %16 = getelementptr inbounds i8, ptr %.val, i64 80
  %17 = load ptr, ptr %16, align 8
  %18 = icmp eq ptr %17, %16
  br i1 %18, label %hiddev_send_event.exit, label %.preheader

.preheader:                                       ; preds = %9, %34
  %19 = phi ptr [ %35, %34 ], [ %17, %9 ]
  %20 = getelementptr i8, ptr %19, i64 -24
  %21 = load i32, ptr %20, align 8
  %22 = and i32 %21, 2
  %23 = icmp eq i32 %22, 0
  br i1 %23, label %34, label %24

24:                                               ; preds = %.preheader
  %25 = getelementptr i8, ptr %19, i64 -49184
  %26 = getelementptr i8, ptr %19, i64 -32
  %27 = load i32, ptr %26, align 8
  %28 = sext i32 %27 to i64
  %29 = getelementptr [2048 x %struct.hiddev_usage_ref], ptr %25, i64 0, i64 %28
  store i32 %10, ptr %29, align 8
  %.sroa.5.0..sroa_idx = getelementptr inbounds i8, ptr %29, i64 4
  store i32 %12, ptr %.sroa.5.0..sroa_idx, align 4
  %.sroa.6.0..sroa_idx = getelementptr inbounds i8, ptr %29, i64 8
  store i32 -1, ptr %.sroa.6.0..sroa_idx, align 8
  %.sroa.8.0..sroa_idx = getelementptr inbounds i8, ptr %29, i64 12
  tail call void @llvm.memset.p0.i64(ptr noundef align 4 dereferenceable(12) %.sroa.8.0..sroa_idx, i8 0, i64 12, i1 false)
  %30 = load i32, ptr %26, align 8
  %31 = add i32 %30, 1
  %32 = and i32 %31, 2047
  store i32 %32, ptr %26, align 8
  %33 = getelementptr i8, ptr %19, i64 -16
  tail call void @kill_fasync(ptr noundef %33, i32 noundef 29, i32 noundef 1) #13
  br label %34

34:                                               ; preds = %24, %.preheader
  %35 = load ptr, ptr %19, align 8
  %36 = icmp eq ptr %35, %16
  br i1 %36, label %hiddev_send_event.exit, label %.preheader, !llvm.loop !6

hiddev_send_event.exit:                           ; preds = %34, %9
  tail call void @_raw_spin_unlock_irqrestore(ptr noundef %14, i64 noundef %15) #13
  %37 = getelementptr inbounds i8, ptr %.val, i64 48
  %38 = tail call i32 @__wake_up(ptr noundef %37, i32 noundef 1, i32 noundef 1, ptr noundef null) #13
  ret void
}